; Function Attrs: nofree norecurse nosync nounwind memory(readwrite, inaccessiblemem: none) uwtable
define void @SUNDlsMat_bandScale(double noundef %0, ptr noundef readonly captures(none) %1, i64 noundef %2, i64 noundef %3, i64 noundef %4, i64 noundef %5) local_unnamed_addr #0 {
  %7 = add i64 %4, %3
  %8 = icmp sgt i64 %2, 0
  br i1 %8, label %.lr.ph19, label %._crit_edge20

.lr.ph19:                                         ; preds = %6
  %9 = sub i64 0, %3
  %.not15 = icmp slt i64 %7, 0
  br i1 %.not15, label %._crit_edge20, label %.lr.ph

.lr.ph:                                           ; preds = %.lr.ph19, %._crit_edge
  %.01417 = phi i64 [ %19, %._crit_edge ], [ 0, %.lr.ph19 ]
  %10 = getelementptr inbounds nuw ptr, ptr %1, i64 %.01417
  %11 = load ptr, ptr %10, align 8, !tbaa !16
  %12 = getelementptr inbounds double, ptr %11, i64 %5
  %13 = getelementptr inbounds double, ptr %12, i64 %9
  br label %14

14:                                               ; preds = %.lr.ph, %14
  %.016 = phi i64 [ 0, %.lr.ph ], [ %18, %14 ]
  %15 = getelementptr inbounds nuw double, ptr %13, i64 %.016
  %16 = load double, ptr %15, align 8, !tbaa !17
  %17 = fmul double %0, %16
  store double %17, ptr %15, align 8, !tbaa !17
  %18 = add nuw i64 %.016, 1
  %exitcond.not = icmp eq i64 %.016, %7
  br i1 %exitcond.not, label %._crit_edge, label %14

._crit_edge:                                      ; preds = %14
  %19 = add nuw nsw i64 %.01417, 1
  %exitcond22.not = icmp eq i64 %19, %2
  br i1 %exitcond22.not, label %._crit_edge20, label %.lr.ph

._crit_edge20:                                    ; preds = %._crit_edge, %.lr.ph19, %6
  ret void
}